target datalayout = "e-m:e-p270:32:32-p271:32:32-p272:64:64-i64:64-i128:128-f80:128-n8:16:32:64-S128"
target triple = "x86_64-pc-linux-gnu"

@environ = external global ptr, align 8
@.str.3 = private unnamed_addr constant [11 x i8] c"execve %s\0A\00", align 1
@.str.4 = private unnamed_addr constant [7 x i8] c"execve\00", align 1
@stderr = external global ptr, align 8
@.str.15 = private unnamed_addr constant [10 x i8] c"MOLD_PATH\00", align 1
@.str.16 = private unnamed_addr constant [22 x i8] c"MOLD_PATH is not set\0A\00", align 1

; Function Attrs: nounwind uwtable
define internal ptr @get_mold_path() #0 {
  %1 = alloca ptr, align 8
  call void @llvm.lifetime.start.p0(i64 8, ptr %1) #8
  %2 = call ptr @getenv(ptr noundef @.str.15) #8
  store ptr %2, ptr %1, align 8, !tbaa !3
  %3 = load ptr, ptr %1, align 8, !tbaa !3
  %4 = icmp ne ptr %3, null
  br i1 %4, label %5, label %7

5:                                                ; preds = %0
  %6 = load ptr, ptr %1, align 8, !tbaa !3
  call void @llvm.lifetime.end.p0(i64 8, ptr %1) #8
  ret ptr %6

7:                                                ; preds = %0
  %8 = load ptr, ptr @stderr, align 8, !tbaa !16
  %9 = call i32 (ptr, ptr, ...) @fprintf(ptr noundef %8, ptr noundef @.str.16) #8
  call void @exit(i32 noundef 1) #9
  unreachable
}

; Function Attrs: nounwind uwtable
define i32 @execve(ptr noundef nonnull %0, ptr noundef nonnull %1, ptr noundef %2) #0 {
  %4 = alloca ptr, align 8
  %5 = alloca ptr, align 8
  %6 = alloca ptr, align 8
  %7 = alloca ptr, align 8
  store ptr %0, ptr %4, align 8, !tbaa !3
  store ptr %1, ptr %5, align 8, !tbaa !8
  store ptr %2, ptr %6, align 8, !tbaa !8
  %8 = load ptr, ptr %4, align 8, !tbaa !3
  call void (ptr, ...) @debug_print(ptr noundef @.str.3, ptr noundef %8)
  %9 = load ptr, ptr %4, align 8, !tbaa !3
  %10 = call zeroext i1 @is_ld(ptr noundef %9)
  br i1 %10, label %11, label %13

11:                                               ; preds = %3
  %12 = call ptr @get_mold_path()
  store ptr %12, ptr %4, align 8, !tbaa !3
  br label %13

13:                                               ; preds = %11, %3
  call void @llvm.lifetime.start.p0(i64 8, ptr %7) #8
  %14 = call ptr @dlsym(ptr noundef inttoptr (i64 -1 to ptr), ptr noundef @.str.4) #8
  store ptr %14, ptr %7, align 8, !tbaa !15
  %15 = load ptr, ptr %7, align 8, !tbaa !15
  %16 = load ptr, ptr %4, align 8, !tbaa !3
  %17 = load ptr, ptr %5, align 8, !tbaa !8
  %18 = load ptr, ptr %6, align 8, !tbaa !8
  %19 = call i32 %15(ptr noundef %16, ptr noundef %17, ptr noundef %18)
  call void @llvm.lifetime.end.p0(i64 8, ptr %7) #8
  ret i32 %19
}

; Function Attrs: nounwind uwtable
define i32 @execv(ptr noundef nonnull %0, ptr noundef nonnull %1) #0 {
  %3 = alloca ptr, align 8
  %4 = alloca ptr, align 8
  store ptr %0, ptr %3, align 8, !tbaa !3
  store ptr %1, ptr %4, align 8, !tbaa !8
  %5 = load ptr, ptr %3, align 8, !tbaa !3
  %6 = load ptr, ptr %4, align 8, !tbaa !8
  %7 = load ptr, ptr @environ, align 8, !tbaa !8
  %8 = call i32 @execve(ptr noundef %5, ptr noundef %6, ptr noundef %7) #8
  ret i32 %8
}